; Function Attrs: mustprogress nofree noinline norecurse nosync nounwind willreturn memory(none) uwtable
define internal fastcc range(i32 -536897023, 536897024) i32 @get_rrp(i32 noundef %0) unnamed_addr #4 {
  %2 = tail call i32 @llvm.abs.i32(i32 %0, i1 true)
  %3 = icmp samesign ult i32 %2, 11059
  br i1 %3, label %4, label %6

4:                                                ; preds = %1
  %5 = shl nuw nsw i32 %2, 1
  br label %13

6:                                                ; preds = %1
  %7 = icmp samesign ult i32 %2, 20070
  br i1 %7, label %8, label %10

8:                                                ; preds = %6
  %9 = add nuw nsw i32 %2, 11059
  br label %13

10:                                               ; preds = %6
  %11 = lshr i32 %2, 2
  %12 = add nuw nsw i32 %11, 26112
  br label %13

13:                                               ; preds = %8, %10, %4
  %.0 = phi i32 [ %5, %4 ], [ %9, %8 ], [ %12, %10 ]
  %14 = icmp slt i32 %0, 0
  %15 = sub nsw i32 0, %.0
  %16 = select i1 %14, i32 %15, i32 %.0
  ret i32 %16
}